; Function Attrs: mustprogress uwtable
define noundef nonnull align 8 dereferenceable(32) ptr @_ZNK32pxrInternal_v0_24__pxrReserved__13SdfFileFormat23GetPrimaryFileExtensionB5cxx11Ev(ptr nocapture noundef nonnull readonly align 8 dereferenceable(113) %0) local_unnamed_addr #0 align 2 {
  %2 = alloca %"class.pxrInternal_v0_24__pxrReserved__::TfCallContext", align 8
  %3 = load atomic i8, ptr @_ZGVZNK32pxrInternal_v0_24__pxrReserved__13SdfFileFormat23GetPrimaryFileExtensionB5cxx11EvE11emptyStringB5cxx11 acquire, align 8
  %4 = icmp eq i8 %3, 0
  br i1 %4, label %5, label %9, !prof !17

5:                                                ; preds = %1
  %6 = tail call i32 @__cxa_guard_acquire(ptr nonnull @_ZGVZNK32pxrInternal_v0_24__pxrReserved__13SdfFileFormat23GetPrimaryFileExtensionB5cxx11EvE11emptyStringB5cxx11) #24
  %.not = icmp eq i32 %6, 0
  br i1 %.not, label %9, label %7

7:                                                ; preds = %5
  tail call void @_ZNSt7__cxx1112basic_stringIcSt11char_traitsIcESaIcEEC1Ev(ptr noundef nonnull align 8 dereferenceable(32) @_ZZNK32pxrInternal_v0_24__pxrReserved__13SdfFileFormat23GetPrimaryFileExtensionB5cxx11EvE11emptyStringB5cxx11) #24
  %8 = tail call i32 @__cxa_atexit(ptr nonnull @_ZNSt7__cxx1112basic_stringIcSt11char_traitsIcESaIcEED1Ev, ptr nonnull @_ZZNK32pxrInternal_v0_24__pxrReserved__13SdfFileFormat23GetPrimaryFileExtensionB5cxx11EvE11emptyStringB5cxx11, ptr nonnull @__dso_handle) #24
  tail call void @__cxa_guard_release(ptr nonnull @_ZGVZNK32pxrInternal_v0_24__pxrReserved__13SdfFileFormat23GetPrimaryFileExtensionB5cxx11EvE11emptyStringB5cxx11) #24
  br label %9

9:                                                ; preds = %7, %5, %1
  %10 = getelementptr inbounds nuw i8, ptr %0, i64 88
  %11 = load ptr, ptr %10, align 8
  %12 = getelementptr inbounds i8, ptr %0, i64 96
  %13 = load ptr, ptr %12, align 8
  %14 = icmp eq ptr %11, %13
  br i1 %14, label %15, label %._crit_edge

15:                                               ; preds = %9
  store ptr @.str.4, ptr %2, align 8
  %16 = getelementptr inbounds nuw i8, ptr %2, i64 8
  store ptr @__func__._ZNK32pxrInternal_v0_24__pxrReserved__13SdfFileFormat23GetPrimaryFileExtensionB5cxx11Ev, ptr %16, align 8
  %17 = getelementptr inbounds nuw i8, ptr %2, i64 16
  store i64 206, ptr %17, align 8
  %18 = getelementptr inbounds nuw i8, ptr %2, i64 24
  store ptr @__PRETTY_FUNCTION__._ZNK32pxrInternal_v0_24__pxrReserved__13SdfFileFormat23GetPrimaryFileExtensionB5cxx11Ev, ptr %18, align 8
  %19 = getelementptr inbounds nuw i8, ptr %2, i64 32
  store i8 0, ptr %19, align 8
  %20 = call noundef zeroext i1 @_ZN32pxrInternal_v0_24__pxrReserved__21Tf_FailedVerifyHelperERKNS_13TfCallContextEPKcS4_(ptr noundef nonnull align 8 dereferenceable(33) %2, ptr noundef nonnull @.str.6, ptr noundef null)
  %.pre = load ptr, ptr %10, align 8
  %spec.select = select i1 %20, ptr %.pre, ptr @_ZZNK32pxrInternal_v0_24__pxrReserved__13SdfFileFormat23GetPrimaryFileExtensionB5cxx11EvE11emptyStringB5cxx11
  br label %._crit_edge

._crit_edge:                                      ; preds = %15, %9
  %21 = phi ptr [ %11, %9 ], [ %spec.select, %15 ]
  ret ptr %21
}